
test.elf:     file format elf32-littleriscv


Disassembly of section .text:

00000000 <entry>:
   0:	1141                	addi	sp,sp,-16
   2:	c606                	sw	ra,12(sp)
   4:	42000713          	li	a4,1056
   8:	42000793          	li	a5,1056
   c:	02f77163          	bgeu	a4,a5,2e <entry+0x2e>
  10:	42000693          	li	a3,1056
  14:	41f00713          	li	a4,1055
  18:	8f15                	sub	a4,a4,a3
  1a:	9b71                	andi	a4,a4,-4
  1c:	0711                	addi	a4,a4,4
  1e:	9736                	add	a4,a4,a3
  20:	42000793          	li	a5,1056
  24:	0007a023          	sw	zero,0(a5)
  28:	0791                	addi	a5,a5,4
  2a:	fee79de3          	bne	a5,a4,24 <entry+0x24>
  2e:	2a29                	jal	148 <main>
  30:	40b2                	lw	ra,12(sp)
  32:	0141                	addi	sp,sp,16
  34:	8082                	ret
	...

00000100 <finish>:
 100:	800007b7          	lui	a5,0x80000
 104:	4705                	li	a4,1
 106:	c398                	sw	a4,0(a5)
 108:	8082                	ret

0000010a <iputc>:
 10a:	900007b7          	lui	a5,0x90000
 10e:	c388                	sw	a0,0(a5)
 110:	8082                	ret

00000112 <iputs>:
 112:	00054783          	lbu	a5,0(a0)
 116:	cb81                	beqz	a5,126 <iputs+0x14>
 118:	90000737          	lui	a4,0x90000
 11c:	0505                	addi	a0,a0,1
 11e:	c31c                	sw	a5,0(a4)
 120:	00054783          	lbu	a5,0(a0)
 124:	ffe5                	bnez	a5,11c <iputs+0xa>
 126:	8082                	ret

00000128 <iprintf>:
 128:	7111                	addi	sp,sp,-256
 12a:	cf86                	sw	ra,220(sp)
 12c:	d3ae                	sw	a1,228(sp)
 12e:	d5b2                	sw	a2,232(sp)
 130:	d7b6                	sw	a3,236(sp)
 132:	d9ba                	sw	a4,240(sp)
 134:	dbbe                	sw	a5,244(sp)
 136:	ddc2                	sw	a6,248(sp)
 138:	dfc6                	sw	a7,252(sp)
 13a:	11dc                	addi	a5,sp,228
 13c:	c23e                	sw	a5,4(sp)
 13e:	0028                	addi	a0,sp,8
 140:	3fc9                	jal	112 <iputs>
 142:	40fe                	lw	ra,220(sp)
 144:	6111                	addi	sp,sp,256
 146:	8082                	ret

00000148 <main>:
 148:	1141                	addi	sp,sp,-16
 14a:	c606                	sw	ra,12(sp)
 14c:	4b000793          	li	a5,1200
 150:	17fd                	addi	a5,a5,-1 # 8fffffff <_bss+0x8ffffbdf>
 152:	fffd                	bnez	a5,150 <main+0x8>
 154:	2b000513          	li	a0,688
 158:	3f6d                	jal	112 <iputs>
 15a:	2c000513          	li	a0,704
 15e:	3f55                	jal	112 <iputs>
 160:	40000793          	li	a5,1024
 164:	4394                	lw	a3,0(a5)
 166:	30000737          	lui	a4,0x30000
 16a:	c314                	sw	a3,0(a4)
 16c:	43d4                	lw	a3,4(a5)
 16e:	c354                	sw	a3,4(a4)
 170:	4794                	lw	a3,8(a5)
 172:	c714                	sw	a3,8(a4)
 174:	47d4                	lw	a3,12(a5)
 176:	c754                	sw	a3,12(a4)
 178:	4318                	lw	a4,0(a4)
 17a:	439c                	lw	a5,0(a5)
 17c:	02f71b63          	bne	a4,a5,1b2 <main+0x6a>
 180:	300007b7          	lui	a5,0x30000
 184:	43d8                	lw	a4,4(a5)
 186:	40402783          	lw	a5,1028(zero) # 404 <DataW+0x4>
 18a:	02f71463          	bne	a4,a5,1b2 <main+0x6a>
 18e:	300007b7          	lui	a5,0x30000
 192:	4798                	lw	a4,8(a5)
 194:	40802783          	lw	a5,1032(zero) # 408 <DataW+0x8>
 198:	00f71d63          	bne	a4,a5,1b2 <main+0x6a>
 19c:	300007b7          	lui	a5,0x30000
 1a0:	47d8                	lw	a4,12(a5)
 1a2:	40c02783          	lw	a5,1036(zero) # 40c <DataW+0xc>
 1a6:	00f71663          	bne	a4,a5,1b2 <main+0x6a>
 1aa:	2e000513          	li	a0,736
 1ae:	3795                	jal	112 <iputs>
 1b0:	a021                	j	1b8 <main+0x70>
 1b2:	30400513          	li	a0,772
 1b6:	3fb1                	jal	112 <iputs>
 1b8:	32800513          	li	a0,808
 1bc:	3f99                	jal	112 <iputs>
 1be:	41400793          	li	a5,1044
 1c2:	0007d683          	lhu	a3,0(a5) # 30000000 <_bss+0x2ffffbe0>
 1c6:	30000737          	lui	a4,0x30000
 1ca:	00d71023          	sh	a3,0(a4) # 30000000 <_bss+0x2ffffbe0>
 1ce:	0027d683          	lhu	a3,2(a5)
 1d2:	00d71123          	sh	a3,2(a4)
 1d6:	0047d683          	lhu	a3,4(a5)
 1da:	00d71223          	sh	a3,4(a4)
 1de:	0067d683          	lhu	a3,6(a5)
 1e2:	00d71323          	sh	a3,6(a4)
 1e6:	00075703          	lhu	a4,0(a4)
 1ea:	0742                	slli	a4,a4,0x10
 1ec:	8341                	srli	a4,a4,0x10
 1ee:	0007d783          	lhu	a5,0(a5)
 1f2:	04e79463          	bne	a5,a4,23a <main+0xf2>
 1f6:	300007b7          	lui	a5,0x30000
 1fa:	0027d783          	lhu	a5,2(a5) # 30000002 <_bss+0x2ffffbe2>
 1fe:	07c2                	slli	a5,a5,0x10
 200:	83c1                	srli	a5,a5,0x10
 202:	41605703          	lhu	a4,1046(zero) # 416 <DataH+0x2>
 206:	02f71a63          	bne	a4,a5,23a <main+0xf2>
 20a:	300007b7          	lui	a5,0x30000
 20e:	0047d783          	lhu	a5,4(a5) # 30000004 <_bss+0x2ffffbe4>
 212:	07c2                	slli	a5,a5,0x10
 214:	83c1                	srli	a5,a5,0x10
 216:	41805703          	lhu	a4,1048(zero) # 418 <DataH+0x4>
 21a:	02f71063          	bne	a4,a5,23a <main+0xf2>
 21e:	300007b7          	lui	a5,0x30000
 222:	0067d783          	lhu	a5,6(a5) # 30000006 <_bss+0x2ffffbe6>
 226:	07c2                	slli	a5,a5,0x10
 228:	83c1                	srli	a5,a5,0x10
 22a:	41a05703          	lhu	a4,1050(zero) # 41a <DataH+0x6>
 22e:	00f71663          	bne	a4,a5,23a <main+0xf2>
 232:	34800513          	li	a0,840
 236:	3df1                	jal	112 <iputs>
 238:	a021                	j	240 <main+0xf8>
 23a:	36c00513          	li	a0,876
 23e:	3dd1                	jal	112 <iputs>
 240:	39000513          	li	a0,912
 244:	35f9                	jal	112 <iputs>
 246:	41004683          	lbu	a3,1040(zero) # 410 <DataB>
 24a:	300007b7          	lui	a5,0x30000
 24e:	00d78023          	sb	a3,0(a5) # 30000000 <_bss+0x2ffffbe0>
 252:	41000693          	li	a3,1040
 256:	0016c603          	lbu	a2,1(a3)
 25a:	00c780a3          	sb	a2,1(a5)
 25e:	0026c603          	lbu	a2,2(a3)
 262:	00c78123          	sb	a2,2(a5)
 266:	0036c683          	lbu	a3,3(a3)
 26a:	00d781a3          	sb	a3,3(a5)
 26e:	41000713          	li	a4,1040
 272:	4781                	li	a5,0
 274:	300005b7          	lui	a1,0x30000
 278:	4511                	li	a0,4
 27a:	00b786b3          	add	a3,a5,a1
 27e:	0006c683          	lbu	a3,0(a3)
 282:	0ff6f693          	zext.b	a3,a3
 286:	00074603          	lbu	a2,0(a4)
 28a:	00d61a63          	bne	a2,a3,29e <main+0x156>
 28e:	0785                	addi	a5,a5,1
 290:	0705                	addi	a4,a4,1
 292:	fea794e3          	bne	a5,a0,27a <main+0x132>
 296:	3b000513          	li	a0,944
 29a:	3da5                	jal	112 <iputs>
 29c:	a039                	j	2aa <main+0x162>
 29e:	4711                	li	a4,4
 2a0:	fee78be3          	beq	a5,a4,296 <main+0x14e>
 2a4:	3d400513          	li	a0,980
 2a8:	35ad                	jal	112 <iputs>
 2aa:	3d99                	jal	100 <finish>
 2ac:	a001                	j	2ac <main+0x164>
 2ae:	0000                	unimp
 2b0:	2d0a                	.insn	2, 0x2d0a
 2b2:	2d2d                	jal	8ec <_bss+0x4cc>
 2b4:	6d20                	.insn	2, 0x6d20
 2b6:	6961                	lui	s2,0x18
 2b8:	206e                	.insn	2, 0x206e
 2ba:	2d2d                	jal	8f4 <_bss+0x4d4>
 2bc:	0a2d                	addi	s4,s4,11
 2be:	0000                	unimp
 2c0:	530a                	lw	t1,160(sp)
 2c2:	5244                	lw	s1,36(a2)
 2c4:	4d41                	li	s10,16
 2c6:	5720                	lw	s0,104(a4)
 2c8:	2064726f          	jal	tp,474ce <_bss+0x470ae>
 2cc:	6552                	.insn	2, 0x6552
 2ce:	6461                	lui	s0,0x18
 2d0:	6972572f          	.insn	4, 0x6972572f
 2d4:	6574                	.insn	2, 0x6574
 2d6:	5420                	lw	s0,104(s0)
 2d8:	7365                	lui	t1,0xffff9
 2da:	2e74                	.insn	2, 0x2e74
 2dc:	000a                	c.slli	zero,0x2
 2de:	0000                	unimp
 2e0:	530a                	lw	t1,160(sp)
 2e2:	5244                	lw	s1,36(a2)
 2e4:	4d41                	li	s10,16
 2e6:	5720                	lw	s0,104(a4)
 2e8:	2064726f          	jal	tp,474ee <_bss+0x470ce>
 2ec:	6552                	.insn	2, 0x6552
 2ee:	6461                	lui	s0,0x18
 2f0:	6972572f          	.insn	4, 0x6972572f
 2f4:	6574                	.insn	2, 0x6574
 2f6:	5420                	lw	s0,104(s0)
 2f8:	7365                	lui	t1,0xffff9
 2fa:	2074                	.insn	2, 0x2074
 2fc:	6150                	.insn	2, 0x6150
 2fe:	0a2e7373          	.insn	4, 0x0a2e7373
 302:	0000                	unimp
 304:	530a                	lw	t1,160(sp)
 306:	5244                	lw	s1,36(a2)
 308:	4d41                	li	s10,16
 30a:	5720                	lw	s0,104(a4)
 30c:	2064726f          	jal	tp,47512 <_bss+0x470f2>
 310:	6552                	.insn	2, 0x6552
 312:	6461                	lui	s0,0x18
 314:	6972572f          	.insn	4, 0x6972572f
 318:	6574                	.insn	2, 0x6574
 31a:	5420                	lw	s0,104(s0)
 31c:	7365                	lui	t1,0xffff9
 31e:	2074                	.insn	2, 0x2074
 320:	6146                	.insn	2, 0x6146
 322:	6c69                	lui	s8,0x1a
 324:	0a2e                	slli	s4,s4,0xb
 326:	0000                	unimp
 328:	530a                	lw	t1,160(sp)
 32a:	5244                	lw	s1,36(a2)
 32c:	4d41                	li	s10,16
 32e:	4820                	lw	s0,80(s0)
 330:	6c61                	lui	s8,0x18
 332:	2066                	.insn	2, 0x2066
 334:	6552                	.insn	2, 0x6552
 336:	6461                	lui	s0,0x18
 338:	6972572f          	.insn	4, 0x6972572f
 33c:	6574                	.insn	2, 0x6574
 33e:	5420                	lw	s0,104(s0)
 340:	7365                	lui	t1,0xffff9
 342:	2e74                	.insn	2, 0x2e74
 344:	000a                	c.slli	zero,0x2
 346:	0000                	unimp
 348:	530a                	lw	t1,160(sp)
 34a:	5244                	lw	s1,36(a2)
 34c:	4d41                	li	s10,16
 34e:	4820                	lw	s0,80(s0)
 350:	6c61                	lui	s8,0x18
 352:	2066                	.insn	2, 0x2066
 354:	6552                	.insn	2, 0x6552
 356:	6461                	lui	s0,0x18
 358:	6972572f          	.insn	4, 0x6972572f
 35c:	6574                	.insn	2, 0x6574
 35e:	5420                	lw	s0,104(s0)
 360:	7365                	lui	t1,0xffff9
 362:	2074                	.insn	2, 0x2074
 364:	6150                	.insn	2, 0x6150
 366:	0a2e7373          	.insn	4, 0x0a2e7373
 36a:	0000                	unimp
 36c:	530a                	lw	t1,160(sp)
 36e:	5244                	lw	s1,36(a2)
 370:	4d41                	li	s10,16
 372:	4820                	lw	s0,80(s0)
 374:	6c61                	lui	s8,0x18
 376:	2066                	.insn	2, 0x2066
 378:	6552                	.insn	2, 0x6552
 37a:	6461                	lui	s0,0x18
 37c:	6972572f          	.insn	4, 0x6972572f
 380:	6574                	.insn	2, 0x6574
 382:	5420                	lw	s0,104(s0)
 384:	7365                	lui	t1,0xffff9
 386:	2074                	.insn	2, 0x2074
 388:	6146                	.insn	2, 0x6146
 38a:	6c69                	lui	s8,0x1a
 38c:	0a2e                	slli	s4,s4,0xb
 38e:	0000                	unimp
 390:	530a                	lw	t1,160(sp)
 392:	5244                	lw	s1,36(a2)
 394:	4d41                	li	s10,16
 396:	4220                	lw	s0,64(a2)
 398:	7479                	lui	s0,0xffffe
 39a:	2065                	jal	442 <_bss+0x22>
 39c:	6552                	.insn	2, 0x6552
 39e:	6461                	lui	s0,0x18
 3a0:	6972572f          	.insn	4, 0x6972572f
 3a4:	6574                	.insn	2, 0x6574
 3a6:	5420                	lw	s0,104(s0)
 3a8:	7365                	lui	t1,0xffff9
 3aa:	2e74                	.insn	2, 0x2e74
 3ac:	000a                	c.slli	zero,0x2
 3ae:	0000                	unimp
 3b0:	530a                	lw	t1,160(sp)
 3b2:	5244                	lw	s1,36(a2)
 3b4:	4d41                	li	s10,16
 3b6:	4220                	lw	s0,64(a2)
 3b8:	7479                	lui	s0,0xffffe
 3ba:	2065                	jal	462 <_bss+0x42>
 3bc:	6552                	.insn	2, 0x6552
 3be:	6461                	lui	s0,0x18
 3c0:	6972572f          	.insn	4, 0x6972572f
 3c4:	6574                	.insn	2, 0x6574
 3c6:	5420                	lw	s0,104(s0)
 3c8:	7365                	lui	t1,0xffff9
 3ca:	2074                	.insn	2, 0x2074
 3cc:	6150                	.insn	2, 0x6150
 3ce:	0a2e7373          	.insn	4, 0x0a2e7373
 3d2:	0000                	unimp
 3d4:	530a                	lw	t1,160(sp)
 3d6:	5244                	lw	s1,36(a2)
 3d8:	4d41                	li	s10,16
 3da:	4220                	lw	s0,64(a2)
 3dc:	7479                	lui	s0,0xffffe
 3de:	2065                	jal	486 <_bss+0x66>
 3e0:	6552                	.insn	2, 0x6552
 3e2:	6461                	lui	s0,0x18
 3e4:	6972572f          	.insn	4, 0x6972572f
 3e8:	6574                	.insn	2, 0x6574
 3ea:	5420                	lw	s0,104(s0)
 3ec:	7365                	lui	t1,0xffff9
 3ee:	2074                	.insn	2, 0x2074
 3f0:	6146                	.insn	2, 0x6146
 3f2:	6c69                	lui	s8,0x1a
 3f4:	0a2e                	slli	s4,s4,0xb
	...
