
test.elf:     file format elf32-littleriscv


Disassembly of section .text:

00000000 <entry>:
   0:	1141                	addi	sp,sp,-16
   2:	c606                	sw	ra,12(sp)
   4:	2b000713          	li	a4,688
   8:	33000793          	li	a5,816
   c:	02f77163          	bgeu	a4,a5,2e <entry+0x2e>
  10:	2b000693          	li	a3,688
  14:	32f00713          	li	a4,815
  18:	8f15                	sub	a4,a4,a3
  1a:	9b71                	andi	a4,a4,-4
  1c:	0711                	addi	a4,a4,4
  1e:	9736                	add	a4,a4,a3
  20:	2b000793          	li	a5,688
  24:	0007a023          	sw	zero,0(a5)
  28:	0791                	addi	a5,a5,4
  2a:	fee79de3          	bne	a5,a4,24 <entry+0x24>
  2e:	2a29                	jal	148 <main>
  30:	40b2                	lw	ra,12(sp)
  32:	0141                	addi	sp,sp,16
  34:	8082                	ret
	...

00000100 <finish>:
 100:	800007b7          	lui	a5,0x80000
 104:	4705                	li	a4,1
 106:	c398                	sw	a4,0(a5)
 108:	8082                	ret

0000010a <iputc>:
 10a:	900007b7          	lui	a5,0x90000
 10e:	c388                	sw	a0,0(a5)
 110:	8082                	ret

00000112 <iputs>:
 112:	00054783          	lbu	a5,0(a0)
 116:	cb81                	beqz	a5,126 <iputs+0x14>
 118:	90000737          	lui	a4,0x90000
 11c:	0505                	addi	a0,a0,1
 11e:	c31c                	sw	a5,0(a4)
 120:	00054783          	lbu	a5,0(a0)
 124:	ffe5                	bnez	a5,11c <iputs+0xa>
 126:	8082                	ret

00000128 <iprintf>:
 128:	7111                	addi	sp,sp,-256
 12a:	cf86                	sw	ra,220(sp)
 12c:	d3ae                	sw	a1,228(sp)
 12e:	d5b2                	sw	a2,232(sp)
 130:	d7b6                	sw	a3,236(sp)
 132:	d9ba                	sw	a4,240(sp)
 134:	dbbe                	sw	a5,244(sp)
 136:	ddc2                	sw	a6,248(sp)
 138:	dfc6                	sw	a7,252(sp)
 13a:	11dc                	addi	a5,sp,228
 13c:	c23e                	sw	a5,4(sp)
 13e:	0028                	addi	a0,sp,8
 140:	3fc9                	jal	112 <iputs>
 142:	40fe                	lw	ra,220(sp)
 144:	6111                	addi	sp,sp,256
 146:	8082                	ret

00000148 <main>:
 148:	1141                	addi	sp,sp,-16
 14a:	c606                	sw	ra,12(sp)
 14c:	24400513          	li	a0,580
 150:	37c9                	jal	112 <iputs>
 152:	4681                	li	a3,0
 154:	4621                	li	a2,8
 156:	65f1                	lui	a1,0x1c
 158:	20058593          	addi	a1,a1,512 # 1c200 <_ebss+0x1bed0>
 15c:	50000537          	lui	a0,0x50000
 160:	2049                	jal	1e2 <UART_Init>
 162:	29000593          	li	a1,656
 166:	01d58613          	addi	a2,a1,29
 16a:	29000693          	li	a3,656
 16e:	50000737          	lui	a4,0x50000
 172:	435c                	lw	a5,4(a4)
 174:	8b91                	andi	a5,a5,4
 176:	fff5                	bnez	a5,172 <main+0x2a>
 178:	0006c783          	lbu	a5,0(a3)
 17c:	c71c                	sw	a5,8(a4)
 17e:	0685                	addi	a3,a3,1
 180:	fec699e3          	bne	a3,a2,172 <main+0x2a>
 184:	50000737          	lui	a4,0x50000
 188:	435c                	lw	a5,4(a4)
 18a:	8b89                	andi	a5,a5,2
 18c:	fff5                	bnez	a5,188 <main+0x40>
 18e:	2b000613          	li	a2,688
 192:	01d60513          	addi	a0,a2,29
 196:	2b000693          	li	a3,688
 19a:	50000737          	lui	a4,0x50000
 19e:	435c                	lw	a5,4(a4)
 1a0:	8ba1                	andi	a5,a5,8
 1a2:	fff5                	bnez	a5,19e <main+0x56>
 1a4:	471c                	lw	a5,8(a4)
 1a6:	00f68023          	sb	a5,0(a3)
 1aa:	0685                	addi	a3,a3,1
 1ac:	fea699e3          	bne	a3,a0,19e <main+0x56>
 1b0:	4781                	li	a5,0
 1b2:	4575                	li	a0,29
 1b4:	00064683          	lbu	a3,0(a2)
 1b8:	0005c703          	lbu	a4,0(a1)
 1bc:	00e69b63          	bne	a3,a4,1d2 <main+0x8a>
 1c0:	0785                	addi	a5,a5,1 # 90000001 <_ebss+0x8ffffcd1>
 1c2:	0605                	addi	a2,a2,1
 1c4:	0585                	addi	a1,a1,1
 1c6:	fea797e3          	bne	a5,a0,1b4 <main+0x6c>
 1ca:	25400513          	li	a0,596
 1ce:	3791                	jal	112 <iputs>
 1d0:	a039                	j	1de <main+0x96>
 1d2:	4775                	li	a4,29
 1d4:	fee78be3          	beq	a5,a4,1ca <main+0x82>
 1d8:	26c00513          	li	a0,620
 1dc:	3f1d                	jal	112 <iputs>
 1de:	370d                	jal	100 <finish>
 1e0:	a001                	j	1e0 <main+0x98>

000001e2 <UART_Init>:
 1e2:	4725                	li	a4,9
 1e4:	6799                	lui	a5,0x6
 1e6:	40478793          	addi	a5,a5,1028 # 6404 <_ebss+0x60d4>
 1ea:	02e60563          	beq	a2,a4,214 <UART_Init+0x32>
 1ee:	c11c                	sw	a5,0(a0)
 1f0:	02faf7b7          	lui	a5,0x2faf
 1f4:	08078793          	addi	a5,a5,128 # 2faf080 <_ebss+0x2faed50>
 1f8:	02b7d5b3          	divu	a1,a5,a1
 1fc:	c54c                	sw	a1,12(a0)
 1fe:	411c                	lw	a5,0(a0)
 200:	0017e793          	ori	a5,a5,1
 204:	c11c                	sw	a5,0(a0)
 206:	415c                	lw	a5,4(a0)
 208:	8fd5                	or	a5,a5,a3
 20a:	c15c                	sw	a5,4(a0)
 20c:	411c                	lw	a5,0(a0)
 20e:	8edd                	or	a3,a3,a5
 210:	c114                	sw	a3,0(a0)
 212:	8082                	ret
 214:	6799                	lui	a5,0x6
 216:	40678793          	addi	a5,a5,1030 # 6406 <_ebss+0x60d6>
 21a:	bfd1                	j	1ee <UART_Init+0xc>

0000021c <UART_IntEn>:
 21c:	411c                	lw	a5,0(a0)
 21e:	8fcd                	or	a5,a5,a1
 220:	c11c                	sw	a5,0(a0)
 222:	8082                	ret

00000224 <UART_IntDis>:
 224:	411c                	lw	a5,0(a0)
 226:	fff5c593          	not	a1,a1
 22a:	8dfd                	and	a1,a1,a5
 22c:	c10c                	sw	a1,0(a0)
 22e:	8082                	ret

00000230 <UART_IntClr>:
 230:	415c                	lw	a5,4(a0)
 232:	8fcd                	or	a5,a5,a1
 234:	c15c                	sw	a5,4(a0)
 236:	8082                	ret

00000238 <UART_IntStat>:
 238:	4148                	lw	a0,4(a0)
 23a:	8d6d                	and	a0,a0,a1
 23c:	00a03533          	snez	a0,a0
 240:	8082                	ret
 242:	0000                	unimp
 244:	2d0a                	.insn	2, 0x2d0a
 246:	2d2d                	jal	880 <_ebss+0x550>
 248:	6d20                	.insn	2, 0x6d20
 24a:	6961                	lui	s2,0x18
 24c:	206e                	.insn	2, 0x206e
 24e:	2d2d                	jal	888 <_ebss+0x558>
 250:	0a2d                	addi	s4,s4,11
 252:	0000                	unimp
 254:	550a                	lw	a0,160(sp)
 256:	5241                	li	tp,-16
 258:	2054                	.insn	2, 0x2054
 25a:	5854                	lw	a3,52(s0)
 25c:	2058522f          	.insn	4, 0x2058522f
 260:	6574                	.insn	2, 0x6574
 262:	50207473          	.insn	4, 0x50207473
 266:	7361                	lui	t1,0xffff8
 268:	000a2173          	.insn	4, 0x000a2173
 26c:	550a                	lw	a0,160(sp)
 26e:	5241                	li	tp,-16
 270:	2054                	.insn	2, 0x2054
 272:	5854                	lw	a3,52(s0)
 274:	2058522f          	.insn	4, 0x2058522f
 278:	6574                	.insn	2, 0x6574
 27a:	46207473          	.insn	4, 0x46207473
 27e:	6961                	lui	s2,0x18
 280:	216c                	.insn	2, 0x216c
 282:	000a                	c.slli	zero,0x2
