
test.elf:     file format elf32-littleriscv


Disassembly of section .text:

00000000 <entry>:
   0:	1101                	addi	sp,sp,-32
   2:	ce06                	sw	ra,28(sp)
   4:	cc22                	sw	s0,24(sp)
   6:	1000                	addi	s0,sp,32
   8:	16400793          	li	a5,356
   c:	fef42623          	sw	a5,-20(s0)
  10:	a811                	j	24 <entry+0x24>
  12:	fec42783          	lw	a5,-20(s0)
  16:	0007a023          	sw	zero,0(a5)
  1a:	fec42783          	lw	a5,-20(s0)
  1e:	0791                	addi	a5,a5,4
  20:	fef42623          	sw	a5,-20(s0)
  24:	fec42703          	lw	a4,-20(s0)
  28:	16400793          	li	a5,356
  2c:	fef763e3          	bltu	a4,a5,12 <entry+0x12>
  30:	2865                	jal	e8 <main>
  32:	0001                	nop
  34:	40f2                	lw	ra,28(sp)
  36:	4462                	lw	s0,24(sp)
  38:	6105                	addi	sp,sp,32
  3a:	8082                	ret

0000003c <finish>:
  3c:	1141                	addi	sp,sp,-16
  3e:	c622                	sw	s0,12(sp)
  40:	0800                	addi	s0,sp,16
  42:	100007b7          	lui	a5,0x10000
  46:	4705                	li	a4,1
  48:	c398                	sw	a4,0(a5)
  4a:	0001                	nop
  4c:	4432                	lw	s0,12(sp)
  4e:	0141                	addi	sp,sp,16
  50:	8082                	ret

00000052 <iputc>:
  52:	1101                	addi	sp,sp,-32
  54:	ce22                	sw	s0,28(sp)
  56:	1000                	addi	s0,sp,32
  58:	fea42623          	sw	a0,-20(s0)
  5c:	200007b7          	lui	a5,0x20000
  60:	fec42703          	lw	a4,-20(s0)
  64:	c398                	sw	a4,0(a5)
  66:	0001                	nop
  68:	4472                	lw	s0,28(sp)
  6a:	6105                	addi	sp,sp,32
  6c:	8082                	ret

0000006e <iputs>:
  6e:	1101                	addi	sp,sp,-32
  70:	ce06                	sw	ra,28(sp)
  72:	cc22                	sw	s0,24(sp)
  74:	1000                	addi	s0,sp,32
  76:	fea42623          	sw	a0,-20(s0)
  7a:	a819                	j	90 <iputs+0x22>
  7c:	fec42783          	lw	a5,-20(s0)
  80:	00178713          	addi	a4,a5,1 # 20000001 <__top_mem+0x1fffc001>
  84:	fee42623          	sw	a4,-20(s0)
  88:	0007c783          	lbu	a5,0(a5)
  8c:	853e                	mv	a0,a5
  8e:	37d1                	jal	52 <iputc>
  90:	fec42783          	lw	a5,-20(s0)
  94:	0007c783          	lbu	a5,0(a5)
  98:	f3f5                	bnez	a5,7c <iputs+0xe>
  9a:	0001                	nop
  9c:	0001                	nop
  9e:	40f2                	lw	ra,28(sp)
  a0:	4462                	lw	s0,24(sp)
  a2:	6105                	addi	sp,sp,32
  a4:	8082                	ret

000000a6 <iprintf>:
  a6:	716d                	addi	sp,sp,-272
  a8:	d786                	sw	ra,236(sp)
  aa:	d5a2                	sw	s0,232(sp)
  ac:	1980                	addi	s0,sp,240
  ae:	f0a42e23          	sw	a0,-228(s0)
  b2:	c04c                	sw	a1,4(s0)
  b4:	c410                	sw	a2,8(s0)
  b6:	c454                	sw	a3,12(s0)
  b8:	c818                	sw	a4,16(s0)
  ba:	c85c                	sw	a5,20(s0)
  bc:	01042c23          	sw	a6,24(s0)
  c0:	01142e23          	sw	a7,28(s0)
  c4:	02040793          	addi	a5,s0,32
  c8:	f0f42c23          	sw	a5,-232(s0)
  cc:	f1842783          	lw	a5,-232(s0)
  d0:	1791                	addi	a5,a5,-28
  d2:	f2f42223          	sw	a5,-220(s0)
  d6:	f2840793          	addi	a5,s0,-216
  da:	853e                	mv	a0,a5
  dc:	3f49                	jal	6e <iputs>
  de:	0001                	nop
  e0:	50be                	lw	ra,236(sp)
  e2:	542e                	lw	s0,232(sp)
  e4:	6151                	addi	sp,sp,272
  e6:	8082                	ret

000000e8 <main>:
  e8:	1141                	addi	sp,sp,-16
  ea:	c606                	sw	ra,12(sp)
  ec:	c422                	sw	s0,8(sp)
  ee:	0800                	addi	s0,sp,16
  f0:	14400513          	li	a0,324
  f4:	3fad                	jal	6e <iputs>
  f6:	2801                	jal	106 <test_add>
  f8:	3791                	jal	3c <finish>
  fa:	4781                	li	a5,0
  fc:	853e                	mv	a0,a5
  fe:	40b2                	lw	ra,12(sp)
 100:	4422                	lw	s0,8(sp)
 102:	0141                	addi	sp,sp,16
 104:	8082                	ret

00000106 <test_add>:
 106:	1101                	addi	sp,sp,-32
 108:	ce06                	sw	ra,28(sp)
 10a:	cc22                	sw	s0,24(sp)
 10c:	1000                	addi	s0,sp,32
 10e:	478d                	li	a5,3
 110:	fef42623          	sw	a5,-20(s0)
 114:	4791                	li	a5,4
 116:	fef42423          	sw	a5,-24(s0)
 11a:	fec42703          	lw	a4,-20(s0)
 11e:	fe842783          	lw	a5,-24(s0)
 122:	97ba                	add	a5,a5,a4
 124:	fef42223          	sw	a5,-28(s0)
 128:	fe442683          	lw	a3,-28(s0)
 12c:	fe842603          	lw	a2,-24(s0)
 130:	fec42583          	lw	a1,-20(s0)
 134:	15400513          	li	a0,340
 138:	37bd                	jal	a6 <iprintf>
 13a:	0001                	nop
 13c:	40f2                	lw	ra,28(sp)
 13e:	4462                	lw	s0,24(sp)
 140:	6105                	addi	sp,sp,32
 142:	8082                	ret
