
test.elf:     file format elf32-littleriscv


Disassembly of section .text:

00000000 <entry>:
   0:	1141                	addi	sp,sp,-16
   2:	c606                	sw	ra,12(sp)
   4:	4d000713          	li	a4,1232
   8:	4d000793          	li	a5,1232
   c:	02f77163          	bgeu	a4,a5,2e <entry+0x2e>
  10:	4d000693          	li	a3,1232
  14:	4cf00713          	li	a4,1231
  18:	8f15                	sub	a4,a4,a3
  1a:	9b71                	andi	a4,a4,-4
  1c:	0711                	addi	a4,a4,4
  1e:	9736                	add	a4,a4,a3
  20:	4d000793          	li	a5,1232
  24:	0007a023          	sw	zero,0(a5)
  28:	0791                	addi	a5,a5,4
  2a:	fee79de3          	bne	a5,a4,24 <entry+0x24>
  2e:	2a29                	jal	148 <main>
  30:	40b2                	lw	ra,12(sp)
  32:	0141                	addi	sp,sp,16
  34:	8082                	ret
	...

00000100 <finish>:
 100:	800007b7          	lui	a5,0x80000
 104:	4705                	li	a4,1
 106:	c398                	sw	a4,0(a5)
 108:	8082                	ret

0000010a <iputc>:
 10a:	900007b7          	lui	a5,0x90000
 10e:	c388                	sw	a0,0(a5)
 110:	8082                	ret

00000112 <iputs>:
 112:	00054783          	lbu	a5,0(a0)
 116:	cb81                	beqz	a5,126 <iputs+0x14>
 118:	90000737          	lui	a4,0x90000
 11c:	0505                	addi	a0,a0,1
 11e:	c31c                	sw	a5,0(a4)
 120:	00054783          	lbu	a5,0(a0)
 124:	ffe5                	bnez	a5,11c <iputs+0xa>
 126:	8082                	ret

00000128 <iprintf>:
 128:	7111                	addi	sp,sp,-256
 12a:	cf86                	sw	ra,220(sp)
 12c:	d3ae                	sw	a1,228(sp)
 12e:	d5b2                	sw	a2,232(sp)
 130:	d7b6                	sw	a3,236(sp)
 132:	d9ba                	sw	a4,240(sp)
 134:	dbbe                	sw	a5,244(sp)
 136:	ddc2                	sw	a6,248(sp)
 138:	dfc6                	sw	a7,252(sp)
 13a:	11dc                	addi	a5,sp,228
 13c:	c23e                	sw	a5,4(sp)
 13e:	0028                	addi	a0,sp,8
 140:	3fc9                	jal	112 <iputs>
 142:	40fe                	lw	ra,220(sp)
 144:	6111                	addi	sp,sp,256
 146:	8082                	ret

00000148 <main>:
 148:	1141                	addi	sp,sp,-16
 14a:	c606                	sw	ra,12(sp)
 14c:	34c00513          	li	a0,844
 150:	37c9                	jal	112 <iputs>
 152:	6785                	lui	a5,0x1
 154:	38878793          	addi	a5,a5,904 # 1388 <_bss+0xeb8>
 158:	17fd                	addi	a5,a5,-1
 15a:	fffd                	bnez	a5,158 <main+0x10>
 15c:	02800613          	li	a2,40
 160:	02800593          	li	a1,40
 164:	4509                	li	a0,2
 166:	2a69                	jal	300 <PSRAMC_Init>
 168:	e125                	bnez	a0,1c8 <main+0x80>
 16a:	37800513          	li	a0,888
 16e:	3755                	jal	112 <iputs>
 170:	4b000793          	li	a5,1200
 174:	4394                	lw	a3,0(a5)
 176:	30000737          	lui	a4,0x30000
 17a:	c314                	sw	a3,0(a4)
 17c:	43d4                	lw	a3,4(a5)
 17e:	c354                	sw	a3,4(a4)
 180:	4794                	lw	a3,8(a5)
 182:	c714                	sw	a3,8(a4)
 184:	47d4                	lw	a3,12(a5)
 186:	c754                	sw	a3,12(a4)
 188:	4318                	lw	a4,0(a4)
 18a:	439c                	lw	a5,0(a5)
 18c:	04f71263          	bne	a4,a5,1d0 <main+0x88>
 190:	300007b7          	lui	a5,0x30000
 194:	43d8                	lw	a4,4(a5)
 196:	4b000793          	li	a5,1200
 19a:	43dc                	lw	a5,4(a5)
 19c:	02f71a63          	bne	a4,a5,1d0 <main+0x88>
 1a0:	300007b7          	lui	a5,0x30000
 1a4:	4798                	lw	a4,8(a5)
 1a6:	4b000793          	li	a5,1200
 1aa:	479c                	lw	a5,8(a5)
 1ac:	02f71263          	bne	a4,a5,1d0 <main+0x88>
 1b0:	300007b7          	lui	a5,0x30000
 1b4:	47d8                	lw	a4,12(a5)
 1b6:	4b000793          	li	a5,1200
 1ba:	47dc                	lw	a5,12(a5)
 1bc:	00f71a63          	bne	a4,a5,1d0 <main+0x88>
 1c0:	39800513          	li	a0,920
 1c4:	37b9                	jal	112 <iputs>
 1c6:	a801                	j	1d6 <main+0x8e>
 1c8:	35c00513          	li	a0,860
 1cc:	3799                	jal	112 <iputs>
 1ce:	a8ed                	j	2c8 <main+0x180>
 1d0:	3bc00513          	li	a0,956
 1d4:	3f3d                	jal	112 <iputs>
 1d6:	3e000513          	li	a0,992
 1da:	3f25                	jal	112 <iputs>
 1dc:	4c400793          	li	a5,1220
 1e0:	0007d683          	lhu	a3,0(a5) # 30000000 <_bss+0x2ffffb30>
 1e4:	30000737          	lui	a4,0x30000
 1e8:	00d71023          	sh	a3,0(a4) # 30000000 <_bss+0x2ffffb30>
 1ec:	0027d683          	lhu	a3,2(a5)
 1f0:	00d71123          	sh	a3,2(a4)
 1f4:	0047d683          	lhu	a3,4(a5)
 1f8:	00d71223          	sh	a3,4(a4)
 1fc:	0067d683          	lhu	a3,6(a5)
 200:	00d71323          	sh	a3,6(a4)
 204:	00075703          	lhu	a4,0(a4)
 208:	0742                	slli	a4,a4,0x10
 20a:	8341                	srli	a4,a4,0x10
 20c:	0007d783          	lhu	a5,0(a5)
 210:	04e79463          	bne	a5,a4,258 <main+0x110>
 214:	300007b7          	lui	a5,0x30000
 218:	0027d783          	lhu	a5,2(a5) # 30000002 <_bss+0x2ffffb32>
 21c:	07c2                	slli	a5,a5,0x10
 21e:	83c1                	srli	a5,a5,0x10
 220:	4c605703          	lhu	a4,1222(zero) # 4c6 <DataH+0x2>
 224:	02f71a63          	bne	a4,a5,258 <main+0x110>
 228:	300007b7          	lui	a5,0x30000
 22c:	0047d783          	lhu	a5,4(a5) # 30000004 <_bss+0x2ffffb34>
 230:	07c2                	slli	a5,a5,0x10
 232:	83c1                	srli	a5,a5,0x10
 234:	4c805703          	lhu	a4,1224(zero) # 4c8 <DataH+0x4>
 238:	02f71063          	bne	a4,a5,258 <main+0x110>
 23c:	300007b7          	lui	a5,0x30000
 240:	0067d783          	lhu	a5,6(a5) # 30000006 <_bss+0x2ffffb36>
 244:	07c2                	slli	a5,a5,0x10
 246:	83c1                	srli	a5,a5,0x10
 248:	4ca05703          	lhu	a4,1226(zero) # 4ca <DataH+0x6>
 24c:	00f71663          	bne	a4,a5,258 <main+0x110>
 250:	40000513          	li	a0,1024
 254:	3d7d                	jal	112 <iputs>
 256:	a021                	j	25e <main+0x116>
 258:	42400513          	li	a0,1060
 25c:	3d5d                	jal	112 <iputs>
 25e:	44800513          	li	a0,1096
 262:	3d45                	jal	112 <iputs>
 264:	4c004683          	lbu	a3,1216(zero) # 4c0 <DataB>
 268:	300007b7          	lui	a5,0x30000
 26c:	00d78023          	sb	a3,0(a5) # 30000000 <_bss+0x2ffffb30>
 270:	4c000693          	li	a3,1216
 274:	0016c603          	lbu	a2,1(a3)
 278:	00c780a3          	sb	a2,1(a5)
 27c:	0026c603          	lbu	a2,2(a3)
 280:	00c78123          	sb	a2,2(a5)
 284:	0036c683          	lbu	a3,3(a3)
 288:	00d781a3          	sb	a3,3(a5)
 28c:	4c000713          	li	a4,1216
 290:	4781                	li	a5,0
 292:	300005b7          	lui	a1,0x30000
 296:	4511                	li	a0,4
 298:	00b786b3          	add	a3,a5,a1
 29c:	0006c683          	lbu	a3,0(a3)
 2a0:	0ff6f693          	zext.b	a3,a3
 2a4:	00074603          	lbu	a2,0(a4)
 2a8:	00d61a63          	bne	a2,a3,2bc <main+0x174>
 2ac:	0785                	addi	a5,a5,1
 2ae:	0705                	addi	a4,a4,1
 2b0:	fea794e3          	bne	a5,a0,298 <main+0x150>
 2b4:	46800513          	li	a0,1128
 2b8:	3da9                	jal	112 <iputs>
 2ba:	a039                	j	2c8 <main+0x180>
 2bc:	4711                	li	a4,4
 2be:	fee78be3          	beq	a5,a4,2b4 <main+0x16c>
 2c2:	48c00513          	li	a0,1164
 2c6:	35b1                	jal	112 <iputs>
 2c8:	3d25                	jal	100 <finish>
 2ca:	a001                	j	2ca <main+0x182>

000002cc <PSRAMC_ReadHyperRAMRegs>:
 2cc:	30000737          	lui	a4,0x30000
 2d0:	431c                	lw	a5,0(a4)
 2d2:	0017e793          	ori	a5,a5,1
 2d6:	c31c                	sw	a5,0(a4)
 2d8:	435c                	lw	a5,4(a4)
 2da:	8b8d                	andi	a5,a5,3
 2dc:	dff5                	beqz	a5,2d8 <PSRAMC_ReadHyperRAMRegs+0xc>
 2de:	300007b7          	lui	a5,0x30000
 2e2:	43c8                	lw	a0,4(a5)
 2e4:	8105                	srli	a0,a0,0x1
 2e6:	8905                	andi	a0,a0,1
 2e8:	8082                	ret

000002ea <PSRAMC_Reset>:
 2ea:	1141                	addi	sp,sp,-16
 2ec:	c606                	sw	ra,12(sp)
 2ee:	30000737          	lui	a4,0x30000
 2f2:	431c                	lw	a5,0(a4)
 2f4:	9bf9                	andi	a5,a5,-2
 2f6:	c31c                	sw	a5,0(a4)
 2f8:	3fd1                	jal	2cc <PSRAMC_ReadHyperRAMRegs>
 2fa:	40b2                	lw	ra,12(sp)
 2fc:	0141                	addi	sp,sp,16
 2fe:	8082                	ret

00000300 <PSRAMC_Init>:
 300:	1141                	addi	sp,sp,-16
 302:	c606                	sw	ra,12(sp)
 304:	157d                	addi	a0,a0,-1
 306:	05d2                	slli	a1,a1,0x14
 308:	8d4d                	or	a0,a0,a1
 30a:	400227b7          	lui	a5,0x40022
 30e:	14078793          	addi	a5,a5,320 # 40022140 <_bss+0x40021c70>
 312:	8d5d                	or	a0,a0,a5
 314:	300007b7          	lui	a5,0x30000
 318:	c788                	sw	a0,8(a5)
 31a:	3fc1                	jal	2ea <PSRAMC_Reset>
 31c:	e909                	bnez	a0,32e <PSRAMC_Init+0x2e>
 31e:	300007b7          	lui	a5,0x30000
 322:	4bd8                	lw	a4,20(a5)
 324:	577d                	li	a4,-1
 326:	cbd8                	sw	a4,20(a5)
 328:	40b2                	lw	ra,12(sp)
 32a:	0141                	addi	sp,sp,16
 32c:	8082                	ret
 32e:	4505                	li	a0,1
 330:	bfe5                	j	328 <PSRAMC_Init+0x28>

00000332 <PSRAMC_SetBurstLength>:
 332:	300007b7          	lui	a5,0x30000
 336:	4bd8                	lw	a4,20(a5)
 338:	577d                	li	a4,-1
 33a:	cbd8                	sw	a4,20(a5)
 33c:	8082                	ret

0000033e <PSRAMC_SetInitialLatency>:
 33e:	300007b7          	lui	a5,0x30000
 342:	4bd8                	lw	a4,20(a5)
 344:	577d                	li	a4,-1
 346:	cbd8                	sw	a4,20(a5)
 348:	8082                	ret
 34a:	0000                	unimp
 34c:	2d0a                	.insn	2, 0x2d0a
 34e:	2d2d                	jal	988 <_bss+0x4b8>
 350:	6d20                	.insn	2, 0x6d20
 352:	6961                	lui	s2,0x18
 354:	206e                	.insn	2, 0x206e
 356:	2d2d                	jal	990 <_bss+0x4c0>
 358:	0a2d                	addi	s4,s4,11
 35a:	0000                	unimp
 35c:	500a                	.insn	2, 0x500a
 35e:	4d415253          	.insn	4, 0x4d415253
 362:	6920                	.insn	2, 0x6920
 364:	696e                	.insn	2, 0x696e
 366:	6974                	.insn	2, 0x6974
 368:	6c61                	lui	s8,0x18
 36a:	7a69                	lui	s4,0xffffa
 36c:	2065                	jal	414 <PSRAMC_SetInitialLatency+0xd6>
 36e:	6146                	.insn	2, 0x6146
 370:	6c69                	lui	s8,0x1a
 372:	0a2e                	slli	s4,s4,0xb
 374:	0000                	unimp
 376:	0000                	unimp
 378:	500a                	.insn	2, 0x500a
 37a:	4d415253          	.insn	4, 0x4d415253
 37e:	5720                	lw	s0,104(a4)
 380:	2064726f          	jal	tp,47586 <_bss+0x470b6>
 384:	6552                	.insn	2, 0x6552
 386:	6461                	lui	s0,0x18
 388:	6972572f          	.insn	4, 0x6972572f
 38c:	6574                	.insn	2, 0x6574
 38e:	5420                	lw	s0,104(s0)
 390:	7365                	lui	t1,0xffff9
 392:	2e74                	.insn	2, 0x2e74
 394:	000a                	c.slli	zero,0x2
 396:	0000                	unimp
 398:	500a                	.insn	2, 0x500a
 39a:	4d415253          	.insn	4, 0x4d415253
 39e:	5720                	lw	s0,104(a4)
 3a0:	2064726f          	jal	tp,475a6 <_bss+0x470d6>
 3a4:	6552                	.insn	2, 0x6552
 3a6:	6461                	lui	s0,0x18
 3a8:	6972572f          	.insn	4, 0x6972572f
 3ac:	6574                	.insn	2, 0x6574
 3ae:	5420                	lw	s0,104(s0)
 3b0:	7365                	lui	t1,0xffff9
 3b2:	2074                	.insn	2, 0x2074
 3b4:	6150                	.insn	2, 0x6150
 3b6:	0a2e7373          	.insn	4, 0x0a2e7373
 3ba:	0000                	unimp
 3bc:	500a                	.insn	2, 0x500a
 3be:	4d415253          	.insn	4, 0x4d415253
 3c2:	5720                	lw	s0,104(a4)
 3c4:	2064726f          	jal	tp,475ca <_bss+0x470fa>
 3c8:	6552                	.insn	2, 0x6552
 3ca:	6461                	lui	s0,0x18
 3cc:	6972572f          	.insn	4, 0x6972572f
 3d0:	6574                	.insn	2, 0x6574
 3d2:	5420                	lw	s0,104(s0)
 3d4:	7365                	lui	t1,0xffff9
 3d6:	2074                	.insn	2, 0x2074
 3d8:	6146                	.insn	2, 0x6146
 3da:	6c69                	lui	s8,0x1a
 3dc:	0a2e                	slli	s4,s4,0xb
 3de:	0000                	unimp
 3e0:	500a                	.insn	2, 0x500a
 3e2:	4d415253          	.insn	4, 0x4d415253
 3e6:	4820                	lw	s0,80(s0)
 3e8:	6c61                	lui	s8,0x18
 3ea:	2066                	.insn	2, 0x2066
 3ec:	6552                	.insn	2, 0x6552
 3ee:	6461                	lui	s0,0x18
 3f0:	6972572f          	.insn	4, 0x6972572f
 3f4:	6574                	.insn	2, 0x6574
 3f6:	5420                	lw	s0,104(s0)
 3f8:	7365                	lui	t1,0xffff9
 3fa:	2e74                	.insn	2, 0x2e74
 3fc:	000a                	c.slli	zero,0x2
 3fe:	0000                	unimp
 400:	500a                	.insn	2, 0x500a
 402:	4d415253          	.insn	4, 0x4d415253
 406:	4820                	lw	s0,80(s0)
 408:	6c61                	lui	s8,0x18
 40a:	2066                	.insn	2, 0x2066
 40c:	6552                	.insn	2, 0x6552
 40e:	6461                	lui	s0,0x18
 410:	6972572f          	.insn	4, 0x6972572f
 414:	6574                	.insn	2, 0x6574
 416:	5420                	lw	s0,104(s0)
 418:	7365                	lui	t1,0xffff9
 41a:	2074                	.insn	2, 0x2074
 41c:	6150                	.insn	2, 0x6150
 41e:	0a2e7373          	.insn	4, 0x0a2e7373
 422:	0000                	unimp
 424:	500a                	.insn	2, 0x500a
 426:	4d415253          	.insn	4, 0x4d415253
 42a:	4820                	lw	s0,80(s0)
 42c:	6c61                	lui	s8,0x18
 42e:	2066                	.insn	2, 0x2066
 430:	6552                	.insn	2, 0x6552
 432:	6461                	lui	s0,0x18
 434:	6972572f          	.insn	4, 0x6972572f
 438:	6574                	.insn	2, 0x6574
 43a:	5420                	lw	s0,104(s0)
 43c:	7365                	lui	t1,0xffff9
 43e:	2074                	.insn	2, 0x2074
 440:	6146                	.insn	2, 0x6146
 442:	6c69                	lui	s8,0x1a
 444:	0a2e                	slli	s4,s4,0xb
 446:	0000                	unimp
 448:	500a                	.insn	2, 0x500a
 44a:	4d415253          	.insn	4, 0x4d415253
 44e:	4220                	lw	s0,64(a2)
 450:	7479                	lui	s0,0xffffe
 452:	2065                	jal	4fa <_bss+0x2a>
 454:	6552                	.insn	2, 0x6552
 456:	6461                	lui	s0,0x18
 458:	6972572f          	.insn	4, 0x6972572f
 45c:	6574                	.insn	2, 0x6574
 45e:	5420                	lw	s0,104(s0)
 460:	7365                	lui	t1,0xffff9
 462:	2e74                	.insn	2, 0x2e74
 464:	000a                	c.slli	zero,0x2
 466:	0000                	unimp
 468:	500a                	.insn	2, 0x500a
 46a:	4d415253          	.insn	4, 0x4d415253
 46e:	4220                	lw	s0,64(a2)
 470:	7479                	lui	s0,0xffffe
 472:	2065                	jal	51a <_bss+0x4a>
 474:	6552                	.insn	2, 0x6552
 476:	6461                	lui	s0,0x18
 478:	6972572f          	.insn	4, 0x6972572f
 47c:	6574                	.insn	2, 0x6574
 47e:	5420                	lw	s0,104(s0)
 480:	7365                	lui	t1,0xffff9
 482:	2074                	.insn	2, 0x2074
 484:	6150                	.insn	2, 0x6150
 486:	0a2e7373          	.insn	4, 0x0a2e7373
 48a:	0000                	unimp
 48c:	500a                	.insn	2, 0x500a
 48e:	4d415253          	.insn	4, 0x4d415253
 492:	4220                	lw	s0,64(a2)
 494:	7479                	lui	s0,0xffffe
 496:	2065                	jal	53e <_bss+0x6e>
 498:	6552                	.insn	2, 0x6552
 49a:	6461                	lui	s0,0x18
 49c:	6972572f          	.insn	4, 0x6972572f
 4a0:	6574                	.insn	2, 0x6574
 4a2:	5420                	lw	s0,104(s0)
 4a4:	7365                	lui	t1,0xffff9
 4a6:	2074                	.insn	2, 0x2074
 4a8:	6146                	.insn	2, 0x6146
 4aa:	6c69                	lui	s8,0x1a
 4ac:	0a2e                	slli	s4,s4,0xb
	...
