
test.elf:     file format elf32-littleriscv


Disassembly of section .text:

00000000 <entry>:
   0:	1141                	addi	sp,sp,-16
   2:	c606                	sw	ra,12(sp)
   4:	54000713          	li	a4,1344
   8:	54000793          	li	a5,1344
   c:	02f77163          	bgeu	a4,a5,2e <entry+0x2e>
  10:	54000693          	li	a3,1344
  14:	53f00713          	li	a4,1343
  18:	8f15                	sub	a4,a4,a3
  1a:	9b71                	andi	a4,a4,-4
  1c:	0711                	addi	a4,a4,4
  1e:	9736                	add	a4,a4,a3
  20:	54000793          	li	a5,1344
  24:	0007a023          	sw	zero,0(a5)
  28:	0791                	addi	a5,a5,4
  2a:	fee79de3          	bne	a5,a4,24 <entry+0x24>
  2e:	2a29                	jal	148 <main>
  30:	40b2                	lw	ra,12(sp)
  32:	0141                	addi	sp,sp,16
  34:	8082                	ret
	...

00000100 <finish>:
 100:	800007b7          	lui	a5,0x80000
 104:	4705                	li	a4,1
 106:	c398                	sw	a4,0(a5)
 108:	8082                	ret

0000010a <iputc>:
 10a:	900007b7          	lui	a5,0x90000
 10e:	c388                	sw	a0,0(a5)
 110:	8082                	ret

00000112 <iputs>:
 112:	00054783          	lbu	a5,0(a0)
 116:	cb81                	beqz	a5,126 <iputs+0x14>
 118:	90000737          	lui	a4,0x90000
 11c:	0505                	addi	a0,a0,1
 11e:	c31c                	sw	a5,0(a4)
 120:	00054783          	lbu	a5,0(a0)
 124:	ffe5                	bnez	a5,11c <iputs+0xa>
 126:	8082                	ret

00000128 <iprintf>:
 128:	7111                	addi	sp,sp,-256
 12a:	cf86                	sw	ra,220(sp)
 12c:	d3ae                	sw	a1,228(sp)
 12e:	d5b2                	sw	a2,232(sp)
 130:	d7b6                	sw	a3,236(sp)
 132:	d9ba                	sw	a4,240(sp)
 134:	dbbe                	sw	a5,244(sp)
 136:	ddc2                	sw	a6,248(sp)
 138:	dfc6                	sw	a7,252(sp)
 13a:	11dc                	addi	a5,sp,228
 13c:	c23e                	sw	a5,4(sp)
 13e:	0028                	addi	a0,sp,8
 140:	3fc9                	jal	112 <iputs>
 142:	40fe                	lw	ra,220(sp)
 144:	6111                	addi	sp,sp,256
 146:	8082                	ret

00000148 <main>:
 148:	1141                	addi	sp,sp,-16
 14a:	c606                	sw	ra,12(sp)
 14c:	3b800513          	li	a0,952
 150:	37c9                	jal	112 <iputs>
 152:	6785                	lui	a5,0x1
 154:	38878793          	addi	a5,a5,904 # 1388 <_bss+0xe48>
 158:	17fd                	addi	a5,a5,-1
 15a:	fffd                	bnez	a5,158 <main+0x10>
 15c:	02800613          	li	a2,40
 160:	02800593          	li	a1,40
 164:	4509                	li	a0,2
 166:	22f9                	jal	334 <PSRAMC_Init>
 168:	e125                	bnez	a0,1c8 <main+0x80>
 16a:	3e400513          	li	a0,996
 16e:	3755                	jal	112 <iputs>
 170:	52000793          	li	a5,1312
 174:	4394                	lw	a3,0(a5)
 176:	30000737          	lui	a4,0x30000
 17a:	c314                	sw	a3,0(a4)
 17c:	43d4                	lw	a3,4(a5)
 17e:	c354                	sw	a3,4(a4)
 180:	4794                	lw	a3,8(a5)
 182:	c714                	sw	a3,8(a4)
 184:	47d4                	lw	a3,12(a5)
 186:	c754                	sw	a3,12(a4)
 188:	4318                	lw	a4,0(a4)
 18a:	439c                	lw	a5,0(a5)
 18c:	04f71263          	bne	a4,a5,1d0 <main+0x88>
 190:	300007b7          	lui	a5,0x30000
 194:	43d8                	lw	a4,4(a5)
 196:	52000793          	li	a5,1312
 19a:	43dc                	lw	a5,4(a5)
 19c:	02f71a63          	bne	a4,a5,1d0 <main+0x88>
 1a0:	300007b7          	lui	a5,0x30000
 1a4:	4798                	lw	a4,8(a5)
 1a6:	52000793          	li	a5,1312
 1aa:	479c                	lw	a5,8(a5)
 1ac:	02f71263          	bne	a4,a5,1d0 <main+0x88>
 1b0:	300007b7          	lui	a5,0x30000
 1b4:	47d8                	lw	a4,12(a5)
 1b6:	52000793          	li	a5,1312
 1ba:	47dc                	lw	a5,12(a5)
 1bc:	00f71a63          	bne	a4,a5,1d0 <main+0x88>
 1c0:	40400513          	li	a0,1028
 1c4:	37b9                	jal	112 <iputs>
 1c6:	a801                	j	1d6 <main+0x8e>
 1c8:	3c800513          	li	a0,968
 1cc:	3799                	jal	112 <iputs>
 1ce:	a8ed                	j	2c8 <main+0x180>
 1d0:	42800513          	li	a0,1064
 1d4:	3f3d                	jal	112 <iputs>
 1d6:	44c00513          	li	a0,1100
 1da:	3f25                	jal	112 <iputs>
 1dc:	53400793          	li	a5,1332
 1e0:	0007d683          	lhu	a3,0(a5) # 30000000 <_bss+0x2ffffac0>
 1e4:	30000737          	lui	a4,0x30000
 1e8:	00d71023          	sh	a3,0(a4) # 30000000 <_bss+0x2ffffac0>
 1ec:	0027d683          	lhu	a3,2(a5)
 1f0:	00d71123          	sh	a3,2(a4)
 1f4:	0047d683          	lhu	a3,4(a5)
 1f8:	00d71223          	sh	a3,4(a4)
 1fc:	0067d683          	lhu	a3,6(a5)
 200:	00d71323          	sh	a3,6(a4)
 204:	00075703          	lhu	a4,0(a4)
 208:	0742                	slli	a4,a4,0x10
 20a:	8341                	srli	a4,a4,0x10
 20c:	0007d783          	lhu	a5,0(a5)
 210:	04e79463          	bne	a5,a4,258 <main+0x110>
 214:	300007b7          	lui	a5,0x30000
 218:	0027d783          	lhu	a5,2(a5) # 30000002 <_bss+0x2ffffac2>
 21c:	07c2                	slli	a5,a5,0x10
 21e:	83c1                	srli	a5,a5,0x10
 220:	53605703          	lhu	a4,1334(zero) # 536 <DataH+0x2>
 224:	02f71a63          	bne	a4,a5,258 <main+0x110>
 228:	300007b7          	lui	a5,0x30000
 22c:	0047d783          	lhu	a5,4(a5) # 30000004 <_bss+0x2ffffac4>
 230:	07c2                	slli	a5,a5,0x10
 232:	83c1                	srli	a5,a5,0x10
 234:	53805703          	lhu	a4,1336(zero) # 538 <DataH+0x4>
 238:	02f71063          	bne	a4,a5,258 <main+0x110>
 23c:	300007b7          	lui	a5,0x30000
 240:	0067d783          	lhu	a5,6(a5) # 30000006 <_bss+0x2ffffac6>
 244:	07c2                	slli	a5,a5,0x10
 246:	83c1                	srli	a5,a5,0x10
 248:	53a05703          	lhu	a4,1338(zero) # 53a <DataH+0x6>
 24c:	00f71663          	bne	a4,a5,258 <main+0x110>
 250:	46c00513          	li	a0,1132
 254:	3d7d                	jal	112 <iputs>
 256:	a021                	j	25e <main+0x116>
 258:	49000513          	li	a0,1168
 25c:	3d5d                	jal	112 <iputs>
 25e:	4b400513          	li	a0,1204
 262:	3d45                	jal	112 <iputs>
 264:	53004683          	lbu	a3,1328(zero) # 530 <DataB>
 268:	300007b7          	lui	a5,0x30000
 26c:	00d78023          	sb	a3,0(a5) # 30000000 <_bss+0x2ffffac0>
 270:	53000693          	li	a3,1328
 274:	0016c603          	lbu	a2,1(a3)
 278:	00c780a3          	sb	a2,1(a5)
 27c:	0026c603          	lbu	a2,2(a3)
 280:	00c78123          	sb	a2,2(a5)
 284:	0036c683          	lbu	a3,3(a3)
 288:	00d781a3          	sb	a3,3(a5)
 28c:	53000713          	li	a4,1328
 290:	4781                	li	a5,0
 292:	300005b7          	lui	a1,0x30000
 296:	4511                	li	a0,4
 298:	00b786b3          	add	a3,a5,a1
 29c:	0006c683          	lbu	a3,0(a3)
 2a0:	0ff6f693          	zext.b	a3,a3
 2a4:	00074603          	lbu	a2,0(a4)
 2a8:	00d61a63          	bne	a2,a3,2bc <main+0x174>
 2ac:	0785                	addi	a5,a5,1
 2ae:	0705                	addi	a4,a4,1
 2b0:	fea794e3          	bne	a5,a0,298 <main+0x150>
 2b4:	4d400513          	li	a0,1236
 2b8:	3da9                	jal	112 <iputs>
 2ba:	a039                	j	2c8 <main+0x180>
 2bc:	4711                	li	a4,4
 2be:	fee78be3          	beq	a5,a4,2b4 <main+0x16c>
 2c2:	4f800513          	li	a0,1272
 2c6:	35b1                	jal	112 <iputs>
 2c8:	3d25                	jal	100 <finish>
 2ca:	a001                	j	2ca <main+0x182>

000002cc <PSRAMC_ReadHyperRAMRegs>:
 2cc:	38000737          	lui	a4,0x38000
 2d0:	431c                	lw	a5,0(a4)
 2d2:	0017e793          	ori	a5,a5,1
 2d6:	c31c                	sw	a5,0(a4)
 2d8:	435c                	lw	a5,4(a4)
 2da:	8b8d                	andi	a5,a5,3
 2dc:	dff5                	beqz	a5,2d8 <PSRAMC_ReadHyperRAMRegs+0xc>
 2de:	380007b7          	lui	a5,0x38000
 2e2:	43c8                	lw	a0,4(a5)
 2e4:	8105                	srli	a0,a0,0x1
 2e6:	8905                	andi	a0,a0,1
 2e8:	8082                	ret

000002ea <PSRAMC_SetBurstLength>:
 2ea:	38000737          	lui	a4,0x38000
 2ee:	4b5c                	lw	a5,20(a4)
 2f0:	07c2                	slli	a5,a5,0x10
 2f2:	83c1                	srli	a5,a5,0x10
 2f4:	9bf1                	andi	a5,a5,-4
 2f6:	8d5d                	or	a0,a0,a5
 2f8:	fff54793          	not	a5,a0
 2fc:	07c2                	slli	a5,a5,0x10
 2fe:	8fc9                	or	a5,a5,a0
 300:	cb5c                	sw	a5,20(a4)
 302:	8082                	ret

00000304 <PSRAMC_SetInitialLatency>:
 304:	380007b7          	lui	a5,0x38000
 308:	4bdc                	lw	a5,20(a5)
 30a:	07c2                	slli	a5,a5,0x10
 30c:	83c1                	srli	a5,a5,0x10
 30e:	f0f7f793          	andi	a5,a5,-241
 312:	0512                	slli	a0,a0,0x4
 314:	8fc9                	or	a5,a5,a0
 316:	c999                	beqz	a1,32c <PSRAMC_SetInitialLatency+0x28>
 318:	0087e793          	ori	a5,a5,8
 31c:	fff7c713          	not	a4,a5
 320:	0742                	slli	a4,a4,0x10
 322:	8fd9                	or	a5,a5,a4
 324:	38000737          	lui	a4,0x38000
 328:	cb5c                	sw	a5,20(a4)
 32a:	8082                	ret
 32c:	9bdd                	andi	a5,a5,-9
 32e:	07c2                	slli	a5,a5,0x10
 330:	83c1                	srli	a5,a5,0x10
 332:	b7ed                	j	31c <PSRAMC_SetInitialLatency+0x18>

00000334 <PSRAMC_Init>:
 334:	1141                	addi	sp,sp,-16
 336:	c606                	sw	ra,12(sp)
 338:	c422                	sw	s0,8(sp)
 33a:	c226                	sw	s1,4(sp)
 33c:	c04a                	sw	s2,0(sp)
 33e:	892a                	mv	s2,a0
 340:	8432                	mv	s0,a2
 342:	fff50793          	addi	a5,a0,-1
 346:	0792                	slli	a5,a5,0x4
 348:	38000737          	lui	a4,0x38000
 34c:	c31c                	sw	a5,0(a4)
 34e:	05c2                	slli	a1,a1,0x10
 350:	040027b7          	lui	a5,0x4002
 354:	21478793          	addi	a5,a5,532 # 4002214 <_bss+0x4001cd4>
 358:	8ddd                	or	a1,a1,a5
 35a:	c70c                	sw	a1,8(a4)
 35c:	3f85                	jal	2cc <PSRAMC_ReadHyperRAMRegs>
 35e:	4485                	li	s1,1
 360:	ed0d                	bnez	a0,39a <PSRAMC_Init+0x66>
 362:	84aa                	mv	s1,a0
 364:	00291793          	slli	a5,s2,0x2
 368:	97ca                	add	a5,a5,s2
 36a:	078a                	slli	a5,a5,0x2
 36c:	02f44633          	div	a2,s0,a5
 370:	0605                	addi	a2,a2,1
 372:	0ff67613          	zext.b	a2,a2
 376:	4795                	li	a5,5
 378:	02f60e63          	beq	a2,a5,3b4 <PSRAMC_Init+0x80>
 37c:	02c7e663          	bltu	a5,a2,3a8 <PSRAMC_Init+0x74>
 380:	478d                	li	a5,3
 382:	453d                	li	a0,15
 384:	00c7e963          	bltu	a5,a2,396 <PSRAMC_Init+0x62>
 388:	00c03633          	snez	a2,a2
 38c:	40c00633          	neg	a2,a2
 390:	00c67513          	andi	a0,a2,12
 394:	0509                	addi	a0,a0,2
 396:	4581                	li	a1,0
 398:	37b5                	jal	304 <PSRAMC_SetInitialLatency>
 39a:	8526                	mv	a0,s1
 39c:	40b2                	lw	ra,12(sp)
 39e:	4422                	lw	s0,8(sp)
 3a0:	4492                	lw	s1,4(sp)
 3a2:	4902                	lw	s2,0(sp)
 3a4:	0141                	addi	sp,sp,16
 3a6:	8082                	ret
 3a8:	1669                	addi	a2,a2,-6
 3aa:	00c03633          	snez	a2,a2
 3ae:	00160513          	addi	a0,a2,1
 3b2:	b7d5                	j	396 <PSRAMC_Init+0x62>
 3b4:	4501                	li	a0,0
 3b6:	b7c5                	j	396 <PSRAMC_Init+0x62>
 3b8:	2d0a                	.insn	2, 0x2d0a
 3ba:	2d2d                	jal	9f4 <_bss+0x4b4>
 3bc:	6d20                	.insn	2, 0x6d20
 3be:	6961                	lui	s2,0x18
 3c0:	206e                	.insn	2, 0x206e
 3c2:	2d2d                	jal	9fc <_bss+0x4bc>
 3c4:	0a2d                	addi	s4,s4,11
 3c6:	0000                	unimp
 3c8:	500a                	.insn	2, 0x500a
 3ca:	4d415253          	.insn	4, 0x4d415253
 3ce:	6920                	.insn	2, 0x6920
 3d0:	696e                	.insn	2, 0x696e
 3d2:	6974                	.insn	2, 0x6974
 3d4:	6c61                	lui	s8,0x18
 3d6:	7a69                	lui	s4,0xffffa
 3d8:	2065                	jal	480 <PSRAMC_Init+0x14c>
 3da:	6146                	.insn	2, 0x6146
 3dc:	6c69                	lui	s8,0x1a
 3de:	0a2e                	slli	s4,s4,0xb
 3e0:	0000                	unimp
 3e2:	0000                	unimp
 3e4:	500a                	.insn	2, 0x500a
 3e6:	4d415253          	.insn	4, 0x4d415253
 3ea:	5720                	lw	s0,104(a4)
 3ec:	2064726f          	jal	tp,475f2 <_bss+0x470b2>
 3f0:	6552                	.insn	2, 0x6552
 3f2:	6461                	lui	s0,0x18
 3f4:	6972572f          	.insn	4, 0x6972572f
 3f8:	6574                	.insn	2, 0x6574
 3fa:	5420                	lw	s0,104(s0)
 3fc:	7365                	lui	t1,0xffff9
 3fe:	2e74                	.insn	2, 0x2e74
 400:	000a                	c.slli	zero,0x2
 402:	0000                	unimp
 404:	500a                	.insn	2, 0x500a
 406:	4d415253          	.insn	4, 0x4d415253
 40a:	5720                	lw	s0,104(a4)
 40c:	2064726f          	jal	tp,47612 <_bss+0x470d2>
 410:	6552                	.insn	2, 0x6552
 412:	6461                	lui	s0,0x18
 414:	6972572f          	.insn	4, 0x6972572f
 418:	6574                	.insn	2, 0x6574
 41a:	5420                	lw	s0,104(s0)
 41c:	7365                	lui	t1,0xffff9
 41e:	2074                	.insn	2, 0x2074
 420:	6150                	.insn	2, 0x6150
 422:	0a2e7373          	.insn	4, 0x0a2e7373
 426:	0000                	unimp
 428:	500a                	.insn	2, 0x500a
 42a:	4d415253          	.insn	4, 0x4d415253
 42e:	5720                	lw	s0,104(a4)
 430:	2064726f          	jal	tp,47636 <_bss+0x470f6>
 434:	6552                	.insn	2, 0x6552
 436:	6461                	lui	s0,0x18
 438:	6972572f          	.insn	4, 0x6972572f
 43c:	6574                	.insn	2, 0x6574
 43e:	5420                	lw	s0,104(s0)
 440:	7365                	lui	t1,0xffff9
 442:	2074                	.insn	2, 0x2074
 444:	6146                	.insn	2, 0x6146
 446:	6c69                	lui	s8,0x1a
 448:	0a2e                	slli	s4,s4,0xb
 44a:	0000                	unimp
 44c:	500a                	.insn	2, 0x500a
 44e:	4d415253          	.insn	4, 0x4d415253
 452:	4820                	lw	s0,80(s0)
 454:	6c61                	lui	s8,0x18
 456:	2066                	.insn	2, 0x2066
 458:	6552                	.insn	2, 0x6552
 45a:	6461                	lui	s0,0x18
 45c:	6972572f          	.insn	4, 0x6972572f
 460:	6574                	.insn	2, 0x6574
 462:	5420                	lw	s0,104(s0)
 464:	7365                	lui	t1,0xffff9
 466:	2e74                	.insn	2, 0x2e74
 468:	000a                	c.slli	zero,0x2
 46a:	0000                	unimp
 46c:	500a                	.insn	2, 0x500a
 46e:	4d415253          	.insn	4, 0x4d415253
 472:	4820                	lw	s0,80(s0)
 474:	6c61                	lui	s8,0x18
 476:	2066                	.insn	2, 0x2066
 478:	6552                	.insn	2, 0x6552
 47a:	6461                	lui	s0,0x18
 47c:	6972572f          	.insn	4, 0x6972572f
 480:	6574                	.insn	2, 0x6574
 482:	5420                	lw	s0,104(s0)
 484:	7365                	lui	t1,0xffff9
 486:	2074                	.insn	2, 0x2074
 488:	6150                	.insn	2, 0x6150
 48a:	0a2e7373          	.insn	4, 0x0a2e7373
 48e:	0000                	unimp
 490:	500a                	.insn	2, 0x500a
 492:	4d415253          	.insn	4, 0x4d415253
 496:	4820                	lw	s0,80(s0)
 498:	6c61                	lui	s8,0x18
 49a:	2066                	.insn	2, 0x2066
 49c:	6552                	.insn	2, 0x6552
 49e:	6461                	lui	s0,0x18
 4a0:	6972572f          	.insn	4, 0x6972572f
 4a4:	6574                	.insn	2, 0x6574
 4a6:	5420                	lw	s0,104(s0)
 4a8:	7365                	lui	t1,0xffff9
 4aa:	2074                	.insn	2, 0x2074
 4ac:	6146                	.insn	2, 0x6146
 4ae:	6c69                	lui	s8,0x1a
 4b0:	0a2e                	slli	s4,s4,0xb
 4b2:	0000                	unimp
 4b4:	500a                	.insn	2, 0x500a
 4b6:	4d415253          	.insn	4, 0x4d415253
 4ba:	4220                	lw	s0,64(a2)
 4bc:	7479                	lui	s0,0xffffe
 4be:	2065                	jal	566 <_bss+0x26>
 4c0:	6552                	.insn	2, 0x6552
 4c2:	6461                	lui	s0,0x18
 4c4:	6972572f          	.insn	4, 0x6972572f
 4c8:	6574                	.insn	2, 0x6574
 4ca:	5420                	lw	s0,104(s0)
 4cc:	7365                	lui	t1,0xffff9
 4ce:	2e74                	.insn	2, 0x2e74
 4d0:	000a                	c.slli	zero,0x2
 4d2:	0000                	unimp
 4d4:	500a                	.insn	2, 0x500a
 4d6:	4d415253          	.insn	4, 0x4d415253
 4da:	4220                	lw	s0,64(a2)
 4dc:	7479                	lui	s0,0xffffe
 4de:	2065                	jal	586 <_bss+0x46>
 4e0:	6552                	.insn	2, 0x6552
 4e2:	6461                	lui	s0,0x18
 4e4:	6972572f          	.insn	4, 0x6972572f
 4e8:	6574                	.insn	2, 0x6574
 4ea:	5420                	lw	s0,104(s0)
 4ec:	7365                	lui	t1,0xffff9
 4ee:	2074                	.insn	2, 0x2074
 4f0:	6150                	.insn	2, 0x6150
 4f2:	0a2e7373          	.insn	4, 0x0a2e7373
 4f6:	0000                	unimp
 4f8:	500a                	.insn	2, 0x500a
 4fa:	4d415253          	.insn	4, 0x4d415253
 4fe:	4220                	lw	s0,64(a2)
 500:	7479                	lui	s0,0xffffe
 502:	2065                	jal	5aa <_bss+0x6a>
 504:	6552                	.insn	2, 0x6552
 506:	6461                	lui	s0,0x18
 508:	6972572f          	.insn	4, 0x6972572f
 50c:	6574                	.insn	2, 0x6574
 50e:	5420                	lw	s0,104(s0)
 510:	7365                	lui	t1,0xffff9
 512:	2074                	.insn	2, 0x2074
 514:	6146                	.insn	2, 0x6146
 516:	6c69                	lui	s8,0x1a
 518:	0a2e                	slli	s4,s4,0xb
	...
